; Function Attrs: nofree norecurse nosync nounwind memory(read, inaccessiblemem: none) uwtable
define i32 @Amap_ManCountInverters(ptr noundef readonly captures(none) %0) local_unnamed_addr #5 {
  %2 = getelementptr inbounds nuw i8, ptr %0, i64 48
  %3 = load ptr, ptr %2, align 8, !tbaa !20
  %4 = getelementptr i8, ptr %3, i64 4
  %.val = load i32, ptr %4, align 4, !tbaa !21
  %5 = icmp sgt i32 %.val, 0
  br i1 %5, label %.lr.ph, label %.critedge

.lr.ph:                                           ; preds = %1
  %6 = getelementptr i8, ptr %3, i64 8
  %.val11 = load ptr, ptr %6, align 8, !tbaa !23
  %wide.trip.count = zext nneg i32 %.val to i64
  br label %7

7:                                                ; preds = %.lr.ph, %20
  %indvars.iv = phi i64 [ 0, %.lr.ph ], [ %indvars.iv.next, %20 ]
  %.013 = phi i32 [ 0, %.lr.ph ], [ %.1, %20 ]
  %8 = getelementptr inbounds nuw ptr, ptr %.val11, i64 %indvars.iv
  %9 = load ptr, ptr %8, align 8, !tbaa !24
  %10 = icmp eq ptr %9, null
  br i1 %10, label %20, label %11

11:                                               ; preds = %7
  %12 = getelementptr inbounds nuw i8, ptr %9, i64 52
  %13 = load i64, ptr %9, align 8
  %.not = icmp sgt i64 %13, -1
  %14 = zext i1 %.not to i64
  %15 = getelementptr inbounds nuw [2 x i32], ptr %12, i64 0, i64 %14
  %16 = load i32, ptr %15, align 4, !tbaa !25
  %17 = icmp sgt i32 %16, 0
  %18 = zext i1 %17 to i32
  %19 = add nsw i32 %.013, %18
  br label %20

20:                                               ; preds = %11, %7
  %.1 = phi i32 [ %.013, %7 ], [ %19, %11 ]
  %indvars.iv.next = add nuw nsw i64 %indvars.iv, 1
  %exitcond.not = icmp eq i64 %indvars.iv.next, %wide.trip.count
  br i1 %exitcond.not, label %.critedge, label %7, !llvm.loop !50

.critedge:                                        ; preds = %20, %1
  %.0.lcssa = phi i32 [ 0, %1 ], [ %.1, %20 ]
  ret i32 %.0.lcssa
}